; Function Attrs: nounwind uwtable
define hidden zeroext i1 @SDL_LockProperties_REAL(i32 noundef %0) local_unnamed_addr #0 {
  %2 = alloca ptr, align 8
  call void @llvm.lifetime.start.p0(i64 8, ptr nonnull %2) #6
  store ptr null, ptr %2, align 8
  %.not = icmp eq i32 %0, 0
  br i1 %.not, label %3, label %5

3:                                                ; preds = %1
  %4 = tail call zeroext i1 (ptr, ...) @SDL_SetError_REAL(ptr noundef nonnull @.str, ptr noundef nonnull @.str.3) #6
  br label %16

5:                                                ; preds = %1
  %6 = load ptr, ptr @SDL_properties, align 8
  %7 = zext i32 %0 to i64
  %8 = inttoptr i64 %7 to ptr
  %9 = call zeroext i1 @SDL_FindInHashTable(ptr noundef %6, ptr noundef nonnull %8, ptr noundef nonnull %2) #6
  %10 = load ptr, ptr %2, align 8
  %.not4 = icmp eq ptr %10, null
  br i1 %.not4, label %11, label %13

11:                                               ; preds = %5
  %12 = call zeroext i1 (ptr, ...) @SDL_SetError_REAL(ptr noundef nonnull @.str, ptr noundef nonnull @.str.3) #6
  br label %16

13:                                               ; preds = %5
  %14 = getelementptr inbounds nuw i8, ptr %10, i64 8
  %15 = load ptr, ptr %14, align 8
  call void @SDL_LockMutex_REAL(ptr noundef %15) #6
  br label %16

16:                                               ; preds = %13, %11, %3
  %.0 = phi i1 [ true, %13 ], [ %12, %11 ], [ %4, %3 ]
  call void @llvm.lifetime.end.p0(i64 8, ptr nonnull %2) #6
  ret i1 %.0
}